
driverdev_training.elf:     file format elf32-littlearm

Sections:
Idx Name          Size      VMA       LMA       File off  Algn
  0 .isr_vector   00000188  08000000  08000000  00001000  2**0
                  CONTENTS, ALLOC, LOAD, READONLY, DATA
  1 .text         000007c4  08000188  08000188  00001188  2**2
                  CONTENTS, ALLOC, LOAD, READONLY, CODE
  2 .rodata       00000000  0800094c  0800095c  0000195c  2**0
                  CONTENTS, ALLOC, LOAD, DATA
  3 .ARM.extab    00000000  0800094c  0800094c  0000195c  2**0
                  CONTENTS
  4 .ARM          00000008  0800094c  0800094c  0000194c  2**2
                  CONTENTS, ALLOC, LOAD, READONLY, DATA
  5 .preinit_array 00000000  08000954  0800095c  0000195c  2**0
                  CONTENTS, ALLOC, LOAD, DATA
  6 .init_array   00000004  08000954  08000954  00001954  2**2
                  CONTENTS, ALLOC, LOAD, READONLY, DATA
  7 .fini_array   00000004  08000958  08000958  00001958  2**2
                  CONTENTS, ALLOC, LOAD, READONLY, DATA
  8 .data         00000000  20000000  20000000  0000195c  2**0
                  CONTENTS, ALLOC, LOAD, DATA
  9 .ccmram       00000000  10000000  10000000  0000195c  2**0
                  CONTENTS
 10 .bss          00000050  20000000  20000000  00002000  2**2
                  ALLOC
 11 ._user_heap_stack 00000600  20000050  20000050  00002000  2**0
                  ALLOC
 12 .ARM.attributes 0000002a  00000000  00000000  0000195c  2**0
                  CONTENTS, READONLY
 13 .debug_info   00001565  00000000  00000000  00001986  2**0
                  CONTENTS, READONLY, DEBUGGING, OCTETS
 14 .debug_abbrev 0000060e  00000000  00000000  00002eeb  2**0
                  CONTENTS, READONLY, DEBUGGING, OCTETS
 15 .debug_aranges 00000130  00000000  00000000  00003500  2**3
                  CONTENTS, READONLY, DEBUGGING, OCTETS
 16 .debug_rnglists 000000cf  00000000  00000000  00003630  2**0
                  CONTENTS, READONLY, DEBUGGING, OCTETS
 17 .debug_macro  0000289f  00000000  00000000  000036ff  2**0
                  CONTENTS, READONLY, DEBUGGING, OCTETS
 18 .debug_line   00001dd3  00000000  00000000  00005f9e  2**0
                  CONTENTS, READONLY, DEBUGGING, OCTETS
 19 .debug_str    0000b33c  00000000  00000000  00007d71  2**0
                  CONTENTS, READONLY, DEBUGGING, OCTETS
 20 .comment      00000043  00000000  00000000  000130ad  2**0
                  CONTENTS, READONLY
 21 .debug_frame  000003a4  00000000  00000000  000130f0  2**2
                  CONTENTS, READONLY, DEBUGGING, OCTETS
 22 .debug_line_str 00000069  00000000  00000000  00013494  2**0
                  CONTENTS, READONLY, DEBUGGING, OCTETS

Disassembly of section .text:

08000188 <__do_global_dtors_aux>:
 8000188:	b510      	push	{r4, lr}
 800018a:	4c05      	ldr	r4, [pc, #20]	@ (80001a0 <__do_global_dtors_aux+0x18>)
 800018c:	7823      	ldrb	r3, [r4, #0]
 800018e:	b933      	cbnz	r3, 800019e <__do_global_dtors_aux+0x16>
 8000190:	4b04      	ldr	r3, [pc, #16]	@ (80001a4 <__do_global_dtors_aux+0x1c>)
 8000192:	b113      	cbz	r3, 800019a <__do_global_dtors_aux+0x12>
 8000194:	4804      	ldr	r0, [pc, #16]	@ (80001a8 <__do_global_dtors_aux+0x20>)
 8000196:	f3af 8000 	nop.w
 800019a:	2301      	movs	r3, #1
 800019c:	7023      	strb	r3, [r4, #0]
 800019e:	bd10      	pop	{r4, pc}
 80001a0:	20000000 	.word	0x20000000
 80001a4:	00000000 	.word	0x00000000
 80001a8:	08000934 	.word	0x08000934

080001ac <frame_dummy>:
 80001ac:	b508      	push	{r3, lr}
 80001ae:	4b03      	ldr	r3, [pc, #12]	@ (80001bc <frame_dummy+0x10>)
 80001b0:	b11b      	cbz	r3, 80001ba <frame_dummy+0xe>
 80001b2:	4903      	ldr	r1, [pc, #12]	@ (80001c0 <frame_dummy+0x14>)
 80001b4:	4803      	ldr	r0, [pc, #12]	@ (80001c4 <frame_dummy+0x18>)
 80001b6:	f3af 8000 	nop.w
 80001ba:	bd08      	pop	{r3, pc}
 80001bc:	00000000 	.word	0x00000000
 80001c0:	20000004 	.word	0x20000004
 80001c4:	08000934 	.word	0x08000934

080001c8 <strlen>:
 80001c8:	4603      	mov	r3, r0
 80001ca:	f813 2b01 	ldrb.w	r2, [r3], #1
 80001ce:	2a00      	cmp	r2, #0
 80001d0:	d1fb      	bne.n	80001ca <strlen+0x2>
 80001d2:	1a18      	subs	r0, r3, r0
 80001d4:	3801      	subs	r0, #1
 80001d6:	4770      	bx	lr

080001d8 <EXTI0_IRQHandler>:
void SPI_GPIO_Config();
void SPI_config();

SPI_HandleTypeDef_t SPI_Handle;

void EXTI0_IRQHandler(){
 80001d8:	b580      	push	{r7, lr}
 80001da:	b082      	sub	sp, #8
 80001dc:	af00      	add	r7, sp, #0

	char msgToSent[] = "EV\n";
 80001de:	4b0e      	ldr	r3, [pc, #56]	@ (8000218 <EXTI0_IRQHandler+0x40>)
 80001e0:	607b      	str	r3, [r7, #4]

	if(EXTI->PR & 0x1){
 80001e2:	4b0e      	ldr	r3, [pc, #56]	@ (800021c <EXTI0_IRQHandler+0x44>)
 80001e4:	695b      	ldr	r3, [r3, #20]
 80001e6:	f003 0301 	and.w	r3, r3, #1
 80001ea:	2b00      	cmp	r3, #0
 80001ec:	d010      	beq.n	8000210 <EXTI0_IRQHandler+0x38>

		EXTI->PR |= (0x1U <<0U);
 80001ee:	4b0b      	ldr	r3, [pc, #44]	@ (800021c <EXTI0_IRQHandler+0x44>)
 80001f0:	695b      	ldr	r3, [r3, #20]
 80001f2:	4a0a      	ldr	r2, [pc, #40]	@ (800021c <EXTI0_IRQHandler+0x44>)
 80001f4:	f043 0301 	orr.w	r3, r3, #1
 80001f8:	6153      	str	r3, [r2, #20]

		SPI_TransmitData(&SPI_Handle, (uint8_t*)msgToSent, strlen(msgToSent));
 80001fa:	1d3b      	adds	r3, r7, #4
 80001fc:	4618      	mov	r0, r3
 80001fe:	f7ff ffe3 	bl	80001c8 <strlen>
 8000202:	4603      	mov	r3, r0
 8000204:	b29a      	uxth	r2, r3
 8000206:	1d3b      	adds	r3, r7, #4
 8000208:	4619      	mov	r1, r3
 800020a:	4805      	ldr	r0, [pc, #20]	@ (8000220 <EXTI0_IRQHandler+0x48>)
 800020c:	f000 fb0b 	bl	8000826 <SPI_TransmitData>

	}


}
 8000210:	bf00      	nop
 8000212:	3708      	adds	r7, #8
 8000214:	46bd      	mov	sp, r7
 8000216:	bd80      	pop	{r7, pc}
 8000218:	000a5645 	.word	0x000a5645
 800021c:	40013c00 	.word	0x40013c00
 8000220:	2000001c 	.word	0x2000001c

08000224 <SPI1_IRQHandler>:

void SPI1_IRQHandler(){
 8000224:	b480      	push	{r7}
 8000226:	af00      	add	r7, sp, #0



}
 8000228:	bf00      	nop
 800022a:	46bd      	mov	sp, r7
 800022c:	bc80      	pop	{r7}
 800022e:	4770      	bx	lr

08000230 <main>:

int main(void){
 8000230:	b580      	push	{r7, lr}
 8000232:	af00      	add	r7, sp, #0

	GPIO_LedConfig();
 8000234:	f000 f808 	bl	8000248 <GPIO_LedConfig>
	GPIO_ButtonInterruptConfig();
 8000238:	f000 f856 	bl	80002e8 <GPIO_ButtonInterruptConfig>

	SPI_GPIO_Config();
 800023c:	f000 f8be 	bl	80003bc <SPI_GPIO_Config>
	SPI_config();
 8000240:	f000 f87e 	bl	8000340 <SPI_config>



	for(;;){
 8000244:	bf00      	nop
 8000246:	e7fd      	b.n	8000244 <main+0x14>

08000248 <GPIO_LedConfig>:

	}

}

static void GPIO_LedConfig(){
 8000248:	b580      	push	{r7, lr}
 800024a:	b088      	sub	sp, #32
 800024c:	af00      	add	r7, sp, #0

	GPIO_InitTypeDef_t GPIO_InitStruct = {0};
 800024e:	463b      	mov	r3, r7
 8000250:	2200      	movs	r2, #0
 8000252:	601a      	str	r2, [r3, #0]
 8000254:	605a      	str	r2, [r3, #4]
 8000256:	609a      	str	r2, [r3, #8]
 8000258:	60da      	str	r2, [r3, #12]
 800025a:	611a      	str	r2, [r3, #16]
 800025c:	615a      	str	r2, [r3, #20]

		RCC_GPIOD_CLK_ENABLE(); // Clock is Active
 800025e:	2300      	movs	r3, #0
 8000260:	61fb      	str	r3, [r7, #28]
 8000262:	4b1e      	ldr	r3, [pc, #120]	@ (80002dc <GPIO_LedConfig+0x94>)
 8000264:	6b1b      	ldr	r3, [r3, #48]	@ 0x30
 8000266:	4a1d      	ldr	r2, [pc, #116]	@ (80002dc <GPIO_LedConfig+0x94>)
 8000268:	f043 0308 	orr.w	r3, r3, #8
 800026c:	6313      	str	r3, [r2, #48]	@ 0x30
 800026e:	4b1b      	ldr	r3, [pc, #108]	@ (80002dc <GPIO_LedConfig+0x94>)
 8000270:	6b1b      	ldr	r3, [r3, #48]	@ 0x30
 8000272:	f003 0308 	and.w	r3, r3, #8
 8000276:	61fb      	str	r3, [r7, #28]
		RCC_GPIOA_CLK_ENABLE(); // Clock is Active
 8000278:	2300      	movs	r3, #0
 800027a:	61bb      	str	r3, [r7, #24]
 800027c:	4b17      	ldr	r3, [pc, #92]	@ (80002dc <GPIO_LedConfig+0x94>)
 800027e:	6b1b      	ldr	r3, [r3, #48]	@ 0x30
 8000280:	4a16      	ldr	r2, [pc, #88]	@ (80002dc <GPIO_LedConfig+0x94>)
 8000282:	f043 0301 	orr.w	r3, r3, #1
 8000286:	6313      	str	r3, [r2, #48]	@ 0x30
 8000288:	4b14      	ldr	r3, [pc, #80]	@ (80002dc <GPIO_LedConfig+0x94>)
 800028a:	6b1b      	ldr	r3, [r3, #48]	@ 0x30
 800028c:	f003 0301 	and.w	r3, r3, #1
 8000290:	61bb      	str	r3, [r7, #24]


		GPIO_InitStruct.pinNumber = GPIO_PIN_12 | GPIO_PIN_13 | GPIO_PIN_14 | GPIO_PIN_15;
 8000292:	f44f 4370 	mov.w	r3, #61440	@ 0xf000
 8000296:	603b      	str	r3, [r7, #0]
		GPIO_InitStruct.Mode = GPIO_MODE_OUTPUT;
 8000298:	2301      	movs	r3, #1
 800029a:	607b      	str	r3, [r7, #4]
		GPIO_InitStruct.Speed = GPIO_SPEED_LOW;
 800029c:	2300      	movs	r3, #0
 800029e:	60fb      	str	r3, [r7, #12]
		GPIO_InitStruct.Otype = GPIO_OTYPE_PP;
 80002a0:	2300      	movs	r3, #0
 80002a2:	60bb      	str	r3, [r7, #8]
		GPIO_InitStruct.PuPd = GPIO_PUPD_NOPULL;
 80002a4:	2300      	movs	r3, #0
 80002a6:	613b      	str	r3, [r7, #16]

		GPIO_Init(GPIOD, &GPIO_InitStruct);
 80002a8:	463b      	mov	r3, r7
 80002aa:	4619      	mov	r1, r3
 80002ac:	480c      	ldr	r0, [pc, #48]	@ (80002e0 <GPIO_LedConfig+0x98>)
 80002ae:	f000 f9b6 	bl	800061e <GPIO_Init>

		memset(&GPIO_InitStruct,0, sizeof(GPIO_InitStruct));
 80002b2:	463b      	mov	r3, r7
 80002b4:	2218      	movs	r2, #24
 80002b6:	2100      	movs	r1, #0
 80002b8:	4618      	mov	r0, r3
 80002ba:	f000 fb0e 	bl	80008da <memset>

		GPIO_InitStruct.pinNumber = GPIO_PIN_0;
 80002be:	2301      	movs	r3, #1
 80002c0:	603b      	str	r3, [r7, #0]
		GPIO_InitStruct.Mode = GPIO_MODE_INPUT;
 80002c2:	2300      	movs	r3, #0
 80002c4:	607b      	str	r3, [r7, #4]
		GPIO_InitStruct.PuPd = GPIO_PUPD_PULLDOWN;
 80002c6:	2302      	movs	r3, #2
 80002c8:	613b      	str	r3, [r7, #16]

		GPIO_Init(GPIOA, &GPIO_InitStruct);
 80002ca:	463b      	mov	r3, r7
 80002cc:	4619      	mov	r1, r3
 80002ce:	4805      	ldr	r0, [pc, #20]	@ (80002e4 <GPIO_LedConfig+0x9c>)
 80002d0:	f000 f9a5 	bl	800061e <GPIO_Init>
}
 80002d4:	bf00      	nop
 80002d6:	3720      	adds	r7, #32
 80002d8:	46bd      	mov	sp, r7
 80002da:	bd80      	pop	{r7, pc}
 80002dc:	40023800 	.word	0x40023800
 80002e0:	40020c00 	.word	0x40020c00
 80002e4:	40020000 	.word	0x40020000

080002e8 <GPIO_ButtonInterruptConfig>:



static void GPIO_ButtonInterruptConfig(){
 80002e8:	b580      	push	{r7, lr}
 80002ea:	b082      	sub	sp, #8
 80002ec:	af00      	add	r7, sp, #0

		RCC_SYSCFG_CLK_ENABLE();
 80002ee:	2300      	movs	r3, #0
 80002f0:	607b      	str	r3, [r7, #4]
 80002f2:	4b12      	ldr	r3, [pc, #72]	@ (800033c <GPIO_ButtonInterruptConfig+0x54>)
 80002f4:	6c5b      	ldr	r3, [r3, #68]	@ 0x44
 80002f6:	4a11      	ldr	r2, [pc, #68]	@ (800033c <GPIO_ButtonInterruptConfig+0x54>)
 80002f8:	f443 4380 	orr.w	r3, r3, #16384	@ 0x4000
 80002fc:	6453      	str	r3, [r2, #68]	@ 0x44
 80002fe:	4b0f      	ldr	r3, [pc, #60]	@ (800033c <GPIO_ButtonInterruptConfig+0x54>)
 8000300:	6c5b      	ldr	r3, [r3, #68]	@ 0x44
 8000302:	f403 4380 	and.w	r3, r3, #16384	@ 0x4000
 8000306:	607b      	str	r3, [r7, #4]

		EXTI_InitTypeDef_t EXTI_InitStruct= {0};
 8000308:	2300      	movs	r3, #0
 800030a:	603b      	str	r3, [r7, #0]

		EXTI_LineConfig(EXTI_PortSource_GPIOA, EXTI_LineSource_0);
 800030c:	2100      	movs	r1, #0
 800030e:	2000      	movs	r0, #0
 8000310:	f000 f91e 	bl	8000550 <EXTI_LineConfig>

		EXTI_InitStruct.EXTI_LineCmd = ENABLE;
 8000314:	2301      	movs	r3, #1
 8000316:	70fb      	strb	r3, [r7, #3]
		EXTI_InitStruct.EXTI_LineNumber = EXTI_LineSource_0;
 8000318:	2300      	movs	r3, #0
 800031a:	703b      	strb	r3, [r7, #0]
		EXTI_InitStruct.EXTI_Mode = EXTI_MODE_Interrupt;
 800031c:	2300      	movs	r3, #0
 800031e:	70bb      	strb	r3, [r7, #2]
		EXTI_InitStruct.TriggerSelection =EXTI_RTSR;
 8000320:	2308      	movs	r3, #8
 8000322:	707b      	strb	r3, [r7, #1]

		EXTI_Init(&EXTI_InitStruct);
 8000324:	463b      	mov	r3, r7
 8000326:	4618      	mov	r0, r3
 8000328:	f000 f894 	bl	8000454 <EXTI_Init>

		NVIC_EnableInterrupt(EXTI0_IRQNumber);
 800032c:	2006      	movs	r0, #6
 800032e:	f000 f943 	bl	80005b8 <NVIC_EnableInterrupt>

	}
 8000332:	bf00      	nop
 8000334:	3708      	adds	r7, #8
 8000336:	46bd      	mov	sp, r7
 8000338:	bd80      	pop	{r7, pc}
 800033a:	bf00      	nop
 800033c:	40023800 	.word	0x40023800

08000340 <SPI_config>:


void SPI_config(){
 8000340:	b580      	push	{r7, lr}
 8000342:	b082      	sub	sp, #8
 8000344:	af00      	add	r7, sp, #0

		RCC_SPI1_CLK_ENABLE();
 8000346:	2300      	movs	r3, #0
 8000348:	607b      	str	r3, [r7, #4]
 800034a:	4b19      	ldr	r3, [pc, #100]	@ (80003b0 <SPI_config+0x70>)
 800034c:	6c5b      	ldr	r3, [r3, #68]	@ 0x44
 800034e:	4a18      	ldr	r2, [pc, #96]	@ (80003b0 <SPI_config+0x70>)
 8000350:	f443 5380 	orr.w	r3, r3, #4096	@ 0x1000
 8000354:	6453      	str	r3, [r2, #68]	@ 0x44
 8000356:	4b16      	ldr	r3, [pc, #88]	@ (80003b0 <SPI_config+0x70>)
 8000358:	6c5b      	ldr	r3, [r3, #68]	@ 0x44
 800035a:	f403 5380 	and.w	r3, r3, #4096	@ 0x1000
 800035e:	607b      	str	r3, [r7, #4]

		SPI_Handle.Instance = SPI1;
 8000360:	4b14      	ldr	r3, [pc, #80]	@ (80003b4 <SPI_config+0x74>)
 8000362:	4a15      	ldr	r2, [pc, #84]	@ (80003b8 <SPI_config+0x78>)
 8000364:	601a      	str	r2, [r3, #0]

		SPI_Handle.Init.BR = SPI_BAUDRATE_DIV8; // 2 MHz
 8000366:	4b13      	ldr	r3, [pc, #76]	@ (80003b4 <SPI_config+0x74>)
 8000368:	2210      	movs	r2, #16
 800036a:	611a      	str	r2, [r3, #16]
		SPI_Handle.Init.BUS_CONFIG = SPI_FULL_DUPLEX;
 800036c:	4b11      	ldr	r3, [pc, #68]	@ (80003b4 <SPI_config+0x74>)
 800036e:	2200      	movs	r2, #0
 8000370:	61da      	str	r2, [r3, #28]
		SPI_Handle.Init.CPHA = SPI_CPHA_FIRST;
 8000372:	4b10      	ldr	r3, [pc, #64]	@ (80003b4 <SPI_config+0x74>)
 8000374:	2200      	movs	r2, #0
 8000376:	605a      	str	r2, [r3, #4]
		SPI_Handle.Init.CPOL = SPI_CPOL_LOW;
 8000378:	4b0e      	ldr	r3, [pc, #56]	@ (80003b4 <SPI_config+0x74>)
 800037a:	2200      	movs	r2, #0
 800037c:	609a      	str	r2, [r3, #8]
		SPI_Handle.Init.DFF = SPI_DFF_8BITS;
 800037e:	4b0d      	ldr	r3, [pc, #52]	@ (80003b4 <SPI_config+0x74>)
 8000380:	2200      	movs	r2, #0
 8000382:	621a      	str	r2, [r3, #32]
		SPI_Handle.Init.LSB_First = SPI_FRAMEFORMAT_MSB;
 8000384:	4b0b      	ldr	r3, [pc, #44]	@ (80003b4 <SPI_config+0x74>)
 8000386:	2200      	movs	r2, #0
 8000388:	615a      	str	r2, [r3, #20]
		SPI_Handle.Init.MSTR = SPI_MSTR_MASTER;
 800038a:	4b0a      	ldr	r3, [pc, #40]	@ (80003b4 <SPI_config+0x74>)
 800038c:	2204      	movs	r2, #4
 800038e:	60da      	str	r2, [r3, #12]
		SPI_Handle.Init.SSM = SPI_SSM_ENABLE;
 8000390:	4b08      	ldr	r3, [pc, #32]	@ (80003b4 <SPI_config+0x74>)
 8000392:	f44f 7240 	mov.w	r2, #768	@ 0x300
 8000396:	619a      	str	r2, [r3, #24]

		SPI_Init(&SPI_Handle);
 8000398:	4806      	ldr	r0, [pc, #24]	@ (80003b4 <SPI_config+0x74>)
 800039a:	f000 f9f2 	bl	8000782 <SPI_Init>

		SPI_Perip_Cmd(&SPI_Handle, ENABLE);
 800039e:	2101      	movs	r1, #1
 80003a0:	4804      	ldr	r0, [pc, #16]	@ (80003b4 <SPI_config+0x74>)
 80003a2:	f000 fa21 	bl	80007e8 <SPI_Perip_Cmd>

}
 80003a6:	bf00      	nop
 80003a8:	3708      	adds	r7, #8
 80003aa:	46bd      	mov	sp, r7
 80003ac:	bd80      	pop	{r7, pc}
 80003ae:	bf00      	nop
 80003b0:	40023800 	.word	0x40023800
 80003b4:	2000001c 	.word	0x2000001c
 80003b8:	40013000 	.word	0x40013000

080003bc <SPI_GPIO_Config>:


void SPI_GPIO_Config(){
 80003bc:	b580      	push	{r7, lr}
 80003be:	b086      	sub	sp, #24
 80003c0:	af00      	add	r7, sp, #0

		GPIO_InitTypeDef_t GPIO_InitStruct = { 0 };
 80003c2:	463b      	mov	r3, r7
 80003c4:	2200      	movs	r2, #0
 80003c6:	601a      	str	r2, [r3, #0]
 80003c8:	605a      	str	r2, [r3, #4]
 80003ca:	609a      	str	r2, [r3, #8]
 80003cc:	60da      	str	r2, [r3, #12]
 80003ce:	611a      	str	r2, [r3, #16]
 80003d0:	615a      	str	r2, [r3, #20]

		GPIO_InitStruct.pinNumber = GPIO_PIN_5 | GPIO_PIN_7 ; // PA5 = SCK, PA7 = MOSI
 80003d2:	23a0      	movs	r3, #160	@ 0xa0
 80003d4:	603b      	str	r3, [r7, #0]
		GPIO_InitStruct.Mode = GPIO_MODE_AF;
 80003d6:	2302      	movs	r3, #2
 80003d8:	607b      	str	r3, [r7, #4]
		GPIO_InitStruct.Otype = GPIO_OTYPE_PP;
 80003da:	2300      	movs	r3, #0
 80003dc:	60bb      	str	r3, [r7, #8]
		GPIO_InitStruct.PuPd = GPIO_PUPD_NOPULL;
 80003de:	2300      	movs	r3, #0
 80003e0:	613b      	str	r3, [r7, #16]
		GPIO_InitStruct.Speed = GPIO_SPEED_HIGH;
 80003e2:	2302      	movs	r3, #2
 80003e4:	60fb      	str	r3, [r7, #12]
		GPIO_InitStruct.AF = GPIO_AF5;
 80003e6:	2305      	movs	r3, #5
 80003e8:	617b      	str	r3, [r7, #20]

		GPIO_Init(GPIOA, &GPIO_InitStruct);
 80003ea:	463b      	mov	r3, r7
 80003ec:	4619      	mov	r1, r3
 80003ee:	4803      	ldr	r0, [pc, #12]	@ (80003fc <SPI_GPIO_Config+0x40>)
 80003f0:	f000 f915 	bl	800061e <GPIO_Init>

}
 80003f4:	bf00      	nop
 80003f6:	3718      	adds	r7, #24
 80003f8:	46bd      	mov	sp, r7
 80003fa:	bd80      	pop	{r7, pc}
 80003fc:	40020000 	.word	0x40020000

08000400 <Reset_Handler>:

  .section .text.Reset_Handler
  .weak Reset_Handler
  .type Reset_Handler, %function
Reset_Handler:
  ldr   r0, =_estack
 8000400:	480d      	ldr	r0, [pc, #52]	@ (8000438 <LoopForever+0x2>)
  mov   sp, r0          /* set stack pointer */
 8000402:	4685      	mov	sp, r0
/* Call the clock system initialization function.*/
  bl  SystemInit
 8000404:	f3af 8000 	nop.w

/* Copy the data segment initializers from flash to SRAM */
  ldr r0, =_sdata
 8000408:	480c      	ldr	r0, [pc, #48]	@ (800043c <LoopForever+0x6>)
  ldr r1, =_edata
 800040a:	490d      	ldr	r1, [pc, #52]	@ (8000440 <LoopForever+0xa>)
  ldr r2, =_sidata
 800040c:	4a0d      	ldr	r2, [pc, #52]	@ (8000444 <LoopForever+0xe>)
  movs r3, #0
 800040e:	2300      	movs	r3, #0
  b LoopCopyDataInit
 8000410:	e002      	b.n	8000418 <LoopCopyDataInit>

08000412 <CopyDataInit>:

CopyDataInit:
  ldr r4, [r2, r3]
 8000412:	58d4      	ldr	r4, [r2, r3]
  str r4, [r0, r3]
 8000414:	50c4      	str	r4, [r0, r3]
  adds r3, r3, #4
 8000416:	3304      	adds	r3, #4

08000418 <LoopCopyDataInit>:

LoopCopyDataInit:
  adds r4, r0, r3
 8000418:	18c4      	adds	r4, r0, r3
  cmp r4, r1
 800041a:	428c      	cmp	r4, r1
  bcc CopyDataInit
 800041c:	d3f9      	bcc.n	8000412 <CopyDataInit>

/* Zero fill the bss segment. */
  ldr r2, =_sbss
 800041e:	4a0a      	ldr	r2, [pc, #40]	@ (8000448 <LoopForever+0x12>)
  ldr r4, =_ebss
 8000420:	4c0a      	ldr	r4, [pc, #40]	@ (800044c <LoopForever+0x16>)
  movs r3, #0
 8000422:	2300      	movs	r3, #0
  b LoopFillZerobss
 8000424:	e001      	b.n	800042a <LoopFillZerobss>

08000426 <FillZerobss>:

FillZerobss:
  str  r3, [r2]
 8000426:	6013      	str	r3, [r2, #0]
  adds r2, r2, #4
 8000428:	3204      	adds	r2, #4

0800042a <LoopFillZerobss>:

LoopFillZerobss:
  cmp r2, r4
 800042a:	42a2      	cmp	r2, r4
  bcc FillZerobss
 800042c:	d3fb      	bcc.n	8000426 <FillZerobss>

/* Call static constructors */
  bl __libc_init_array
 800042e:	f000 fa5d 	bl	80008ec <__libc_init_array>
/* Call the application's entry point.*/
  bl main
 8000432:	f7ff fefd 	bl	8000230 <main>

08000436 <LoopForever>:

LoopForever:
  b LoopForever
 8000436:	e7fe      	b.n	8000436 <LoopForever>
  ldr   r0, =_estack
 8000438:	20020000 	.word	0x20020000
  ldr r0, =_sdata
 800043c:	20000000 	.word	0x20000000
  ldr r1, =_edata
 8000440:	20000000 	.word	0x20000000
  ldr r2, =_sidata
 8000444:	0800095c 	.word	0x0800095c
  ldr r2, =_sbss
 8000448:	20000000 	.word	0x20000000
  ldr r4, =_ebss
 800044c:	20000050 	.word	0x20000050

08000450 <ADC_IRQHandler>:
 * @retval : None
*/
  .section .text.Default_Handler,"ax",%progbits
Default_Handler:
Infinite_Loop:
  b Infinite_Loop
 8000450:	e7fe      	b.n	8000450 <ADC_IRQHandler>
	...

08000454 <EXTI_Init>:
 * @retval Void
 *
 */


void EXTI_Init(EXTI_InitTypeDef_t*EXTI_InitStruct){
 8000454:	b480      	push	{r7}
 8000456:	b085      	sub	sp, #20
 8000458:	af00      	add	r7, sp, #0
 800045a:	6078      	str	r0, [r7, #4]

	uint32_t tempValue = 0;
 800045c:	2300      	movs	r3, #0
 800045e:	60fb      	str	r3, [r7, #12]

	tempValue = (uint32_t)EXTI_BASE_ADDR;
 8000460:	4b3a      	ldr	r3, [pc, #232]	@ (800054c <EXTI_Init+0xf8>)
 8000462:	60fb      	str	r3, [r7, #12]

	EXTI->IMR &= ~(0x1U << EXTI_InitStruct->EXTI_LineNumber);
 8000464:	4b39      	ldr	r3, [pc, #228]	@ (800054c <EXTI_Init+0xf8>)
 8000466:	681a      	ldr	r2, [r3, #0]
 8000468:	687b      	ldr	r3, [r7, #4]
 800046a:	781b      	ldrb	r3, [r3, #0]
 800046c:	4619      	mov	r1, r3
 800046e:	2301      	movs	r3, #1
 8000470:	408b      	lsls	r3, r1
 8000472:	43db      	mvns	r3, r3
 8000474:	4935      	ldr	r1, [pc, #212]	@ (800054c <EXTI_Init+0xf8>)
 8000476:	4013      	ands	r3, r2
 8000478:	600b      	str	r3, [r1, #0]
	EXTI->EMR &= ~(0x1U << EXTI_InitStruct->EXTI_LineNumber);
 800047a:	4b34      	ldr	r3, [pc, #208]	@ (800054c <EXTI_Init+0xf8>)
 800047c:	685a      	ldr	r2, [r3, #4]
 800047e:	687b      	ldr	r3, [r7, #4]
 8000480:	781b      	ldrb	r3, [r3, #0]
 8000482:	4619      	mov	r1, r3
 8000484:	2301      	movs	r3, #1
 8000486:	408b      	lsls	r3, r1
 8000488:	43db      	mvns	r3, r3
 800048a:	4930      	ldr	r1, [pc, #192]	@ (800054c <EXTI_Init+0xf8>)
 800048c:	4013      	ands	r3, r2
 800048e:	604b      	str	r3, [r1, #4]

	if(EXTI_InitStruct->EXTI_LineCmd !=	DISABLE){
 8000490:	687b      	ldr	r3, [r7, #4]
 8000492:	78db      	ldrb	r3, [r3, #3]
 8000494:	2b00      	cmp	r3, #0
 8000496:	d040      	beq.n	800051a <EXTI_Init+0xc6>

		tempValue += EXTI_InitStruct->EXTI_Mode;
 8000498:	687b      	ldr	r3, [r7, #4]
 800049a:	789b      	ldrb	r3, [r3, #2]
 800049c:	461a      	mov	r2, r3
 800049e:	68fb      	ldr	r3, [r7, #12]
 80004a0:	4413      	add	r3, r2
 80004a2:	60fb      	str	r3, [r7, #12]

		*((__IO uint32_t*)tempValue) |= (0x1U << EXTI_InitStruct->EXTI_LineNumber);
 80004a4:	68fb      	ldr	r3, [r7, #12]
 80004a6:	6819      	ldr	r1, [r3, #0]
 80004a8:	687b      	ldr	r3, [r7, #4]
 80004aa:	781b      	ldrb	r3, [r3, #0]
 80004ac:	461a      	mov	r2, r3
 80004ae:	2301      	movs	r3, #1
 80004b0:	fa03 f202 	lsl.w	r2, r3, r2
 80004b4:	68fb      	ldr	r3, [r7, #12]
 80004b6:	430a      	orrs	r2, r1
 80004b8:	601a      	str	r2, [r3, #0]

		tempValue = (uint32_t)EXTI_BASE_ADDR;
 80004ba:	4b24      	ldr	r3, [pc, #144]	@ (800054c <EXTI_Init+0xf8>)
 80004bc:	60fb      	str	r3, [r7, #12]

		EXTI->RTSR &= ~(0x1U << EXTI_InitStruct->EXTI_LineNumber);
 80004be:	4b23      	ldr	r3, [pc, #140]	@ (800054c <EXTI_Init+0xf8>)
 80004c0:	689a      	ldr	r2, [r3, #8]
 80004c2:	687b      	ldr	r3, [r7, #4]
 80004c4:	781b      	ldrb	r3, [r3, #0]
 80004c6:	4619      	mov	r1, r3
 80004c8:	2301      	movs	r3, #1
 80004ca:	408b      	lsls	r3, r1
 80004cc:	43db      	mvns	r3, r3
 80004ce:	491f      	ldr	r1, [pc, #124]	@ (800054c <EXTI_Init+0xf8>)
 80004d0:	4013      	ands	r3, r2
 80004d2:	608b      	str	r3, [r1, #8]
		EXTI->FTSR &= ~(0x1U << EXTI_InitStruct->EXTI_LineNumber);
 80004d4:	4b1d      	ldr	r3, [pc, #116]	@ (800054c <EXTI_Init+0xf8>)
 80004d6:	68da      	ldr	r2, [r3, #12]
 80004d8:	687b      	ldr	r3, [r7, #4]
 80004da:	781b      	ldrb	r3, [r3, #0]
 80004dc:	4619      	mov	r1, r3
 80004de:	2301      	movs	r3, #1
 80004e0:	408b      	lsls	r3, r1
 80004e2:	43db      	mvns	r3, r3
 80004e4:	4919      	ldr	r1, [pc, #100]	@ (800054c <EXTI_Init+0xf8>)
 80004e6:	4013      	ands	r3, r2
 80004e8:	60cb      	str	r3, [r1, #12]

		if((EXTI_InitStruct->TriggerSelection = EXTI_RFTSR)){
 80004ea:	687b      	ldr	r3, [r7, #4]
 80004ec:	2210      	movs	r2, #16
 80004ee:	705a      	strb	r2, [r3, #1]

			EXTI->RTSR |= (0x1U << EXTI_InitStruct->EXTI_LineNumber);
 80004f0:	4b16      	ldr	r3, [pc, #88]	@ (800054c <EXTI_Init+0xf8>)
 80004f2:	689a      	ldr	r2, [r3, #8]
 80004f4:	687b      	ldr	r3, [r7, #4]
 80004f6:	781b      	ldrb	r3, [r3, #0]
 80004f8:	4619      	mov	r1, r3
 80004fa:	2301      	movs	r3, #1
 80004fc:	408b      	lsls	r3, r1
 80004fe:	4913      	ldr	r1, [pc, #76]	@ (800054c <EXTI_Init+0xf8>)
 8000500:	4313      	orrs	r3, r2
 8000502:	608b      	str	r3, [r1, #8]
			EXTI->FTSR |= (0x1U << EXTI_InitStruct->EXTI_LineNumber);
 8000504:	4b11      	ldr	r3, [pc, #68]	@ (800054c <EXTI_Init+0xf8>)
 8000506:	68da      	ldr	r2, [r3, #12]
 8000508:	687b      	ldr	r3, [r7, #4]
 800050a:	781b      	ldrb	r3, [r3, #0]
 800050c:	4619      	mov	r1, r3
 800050e:	2301      	movs	r3, #1
 8000510:	408b      	lsls	r3, r1
 8000512:	490e      	ldr	r1, [pc, #56]	@ (800054c <EXTI_Init+0xf8>)
 8000514:	4313      	orrs	r3, r2
 8000516:	60cb      	str	r3, [r1, #12]
		tempValue += EXTI_InitStruct->EXTI_Mode;
		*((__IO uint32_t*)tempValue) &= ~(0x1U << EXTI_InitStruct->EXTI_LineNumber);

	}

}
 8000518:	e012      	b.n	8000540 <EXTI_Init+0xec>
		tempValue = (uint32_t)EXTI_BASE_ADDR;
 800051a:	4b0c      	ldr	r3, [pc, #48]	@ (800054c <EXTI_Init+0xf8>)
 800051c:	60fb      	str	r3, [r7, #12]
		tempValue += EXTI_InitStruct->EXTI_Mode;
 800051e:	687b      	ldr	r3, [r7, #4]
 8000520:	789b      	ldrb	r3, [r3, #2]
 8000522:	461a      	mov	r2, r3
 8000524:	68fb      	ldr	r3, [r7, #12]
 8000526:	4413      	add	r3, r2
 8000528:	60fb      	str	r3, [r7, #12]
		*((__IO uint32_t*)tempValue) &= ~(0x1U << EXTI_InitStruct->EXTI_LineNumber);
 800052a:	68fb      	ldr	r3, [r7, #12]
 800052c:	6819      	ldr	r1, [r3, #0]
 800052e:	687b      	ldr	r3, [r7, #4]
 8000530:	781b      	ldrb	r3, [r3, #0]
 8000532:	461a      	mov	r2, r3
 8000534:	2301      	movs	r3, #1
 8000536:	4093      	lsls	r3, r2
 8000538:	43da      	mvns	r2, r3
 800053a:	68fb      	ldr	r3, [r7, #12]
 800053c:	400a      	ands	r2, r1
 800053e:	601a      	str	r2, [r3, #0]
}
 8000540:	bf00      	nop
 8000542:	3714      	adds	r7, #20
 8000544:	46bd      	mov	sp, r7
 8000546:	bc80      	pop	{r7}
 8000548:	4770      	bx	lr
 800054a:	bf00      	nop
 800054c:	40013c00 	.word	0x40013c00

08000550 <EXTI_LineConfig>:
 *
 * @retval Void
 *
 */

void EXTI_LineConfig(uint8_t PortSource, uint8_t EXTI_LineSource){
 8000550:	b480      	push	{r7}
 8000552:	b085      	sub	sp, #20
 8000554:	af00      	add	r7, sp, #0
 8000556:	4603      	mov	r3, r0
 8000558:	460a      	mov	r2, r1
 800055a:	71fb      	strb	r3, [r7, #7]
 800055c:	4613      	mov	r3, r2
 800055e:	71bb      	strb	r3, [r7, #6]

	uint32_t tempValue = 0;
 8000560:	2300      	movs	r3, #0
 8000562:	60fb      	str	r3, [r7, #12]

	tempValue = SYSCFG->EXTI_CR[EXTI_LineSource >> 2U];
 8000564:	4a13      	ldr	r2, [pc, #76]	@ (80005b4 <EXTI_LineConfig+0x64>)
 8000566:	79bb      	ldrb	r3, [r7, #6]
 8000568:	089b      	lsrs	r3, r3, #2
 800056a:	b2db      	uxtb	r3, r3
 800056c:	3302      	adds	r3, #2
 800056e:	f852 3023 	ldr.w	r3, [r2, r3, lsl #2]
 8000572:	60fb      	str	r3, [r7, #12]
	tempValue &= ~(0xFU << (EXTI_LineSource & 0x3U) * 4);
 8000574:	79bb      	ldrb	r3, [r7, #6]
 8000576:	f003 0303 	and.w	r3, r3, #3
 800057a:	009b      	lsls	r3, r3, #2
 800057c:	220f      	movs	r2, #15
 800057e:	fa02 f303 	lsl.w	r3, r2, r3
 8000582:	43db      	mvns	r3, r3
 8000584:	68fa      	ldr	r2, [r7, #12]
 8000586:	4013      	ands	r3, r2
 8000588:	60fb      	str	r3, [r7, #12]
	tempValue = (PortSource << (EXTI_LineSource & 0x3U) * 4);
 800058a:	79fa      	ldrb	r2, [r7, #7]
 800058c:	79bb      	ldrb	r3, [r7, #6]
 800058e:	f003 0303 	and.w	r3, r3, #3
 8000592:	009b      	lsls	r3, r3, #2
 8000594:	fa02 f303 	lsl.w	r3, r2, r3
 8000598:	60fb      	str	r3, [r7, #12]
	SYSCFG->EXTI_CR[EXTI_LineSource >> 2U] = tempValue;
 800059a:	4906      	ldr	r1, [pc, #24]	@ (80005b4 <EXTI_LineConfig+0x64>)
 800059c:	79bb      	ldrb	r3, [r7, #6]
 800059e:	089b      	lsrs	r3, r3, #2
 80005a0:	b2db      	uxtb	r3, r3
 80005a2:	3302      	adds	r3, #2
 80005a4:	68fa      	ldr	r2, [r7, #12]
 80005a6:	f841 2023 	str.w	r2, [r1, r3, lsl #2]
}
 80005aa:	bf00      	nop
 80005ac:	3714      	adds	r7, #20
 80005ae:	46bd      	mov	sp, r7
 80005b0:	bc80      	pop	{r7}
 80005b2:	4770      	bx	lr
 80005b4:	40013800 	.word	0x40013800

080005b8 <NVIC_EnableInterrupt>:
 *
 */



void NVIC_EnableInterrupt(IRQNumber_TypeDef_t IRQnumber){
 80005b8:	b480      	push	{r7}
 80005ba:	b085      	sub	sp, #20
 80005bc:	af00      	add	r7, sp, #0
 80005be:	4603      	mov	r3, r0
 80005c0:	71fb      	strb	r3, [r7, #7]

	uint32_t tempValue = 0;
 80005c2:	2300      	movs	r3, #0
 80005c4:	60fb      	str	r3, [r7, #12]

	tempValue = *((IRQnumber >> 5U) + NVIC_ISER0);
 80005c6:	79fb      	ldrb	r3, [r7, #7]
 80005c8:	095b      	lsrs	r3, r3, #5
 80005ca:	b2db      	uxtb	r3, r3
 80005cc:	009b      	lsls	r3, r3, #2
 80005ce:	f103 4360 	add.w	r3, r3, #3758096384	@ 0xe0000000
 80005d2:	f503 4361 	add.w	r3, r3, #57600	@ 0xe100
 80005d6:	681b      	ldr	r3, [r3, #0]
 80005d8:	60fb      	str	r3, [r7, #12]
	tempValue &= ~(0x1U << (IRQnumber & 0x1FU));
 80005da:	79fb      	ldrb	r3, [r7, #7]
 80005dc:	f003 031f 	and.w	r3, r3, #31
 80005e0:	2201      	movs	r2, #1
 80005e2:	fa02 f303 	lsl.w	r3, r2, r3
 80005e6:	43db      	mvns	r3, r3
 80005e8:	68fa      	ldr	r2, [r7, #12]
 80005ea:	4013      	ands	r3, r2
 80005ec:	60fb      	str	r3, [r7, #12]
	tempValue |= (0x1U << (IRQnumber & 0x1FU));
 80005ee:	79fb      	ldrb	r3, [r7, #7]
 80005f0:	f003 031f 	and.w	r3, r3, #31
 80005f4:	2201      	movs	r2, #1
 80005f6:	fa02 f303 	lsl.w	r3, r2, r3
 80005fa:	68fa      	ldr	r2, [r7, #12]
 80005fc:	4313      	orrs	r3, r2
 80005fe:	60fb      	str	r3, [r7, #12]
	*((IRQnumber >> 5U) + NVIC_ISER0) = tempValue;
 8000600:	79fb      	ldrb	r3, [r7, #7]
 8000602:	095b      	lsrs	r3, r3, #5
 8000604:	b2db      	uxtb	r3, r3
 8000606:	009b      	lsls	r3, r3, #2
 8000608:	f103 4360 	add.w	r3, r3, #3758096384	@ 0xe0000000
 800060c:	f503 4361 	add.w	r3, r3, #57600	@ 0xe100
 8000610:	68fa      	ldr	r2, [r7, #12]
 8000612:	601a      	str	r2, [r3, #0]

}
 8000614:	bf00      	nop
 8000616:	3714      	adds	r7, #20
 8000618:	46bd      	mov	sp, r7
 800061a:	bc80      	pop	{r7}
 800061c:	4770      	bx	lr

0800061e <GPIO_Init>:
 *
 * @retval Void
 *
 */

void GPIO_Init(GPIO_TypeDef_t *GPIOx,GPIO_InitTypeDef_t *GPIO_ConfigStruct){
 800061e:	b480      	push	{r7}
 8000620:	b087      	sub	sp, #28
 8000622:	af00      	add	r7, sp, #0
 8000624:	6078      	str	r0, [r7, #4]
 8000626:	6039      	str	r1, [r7, #0]

	uint32_t pos;
	uint32_t fakepos;
	uint32_t lastpos;

	for(pos =0; pos< 16; pos++){
 8000628:	2300      	movs	r3, #0
 800062a:	617b      	str	r3, [r7, #20]
 800062c:	e09f      	b.n	800076e <GPIO_Init+0x150>

		fakepos = (0x1 << pos);
 800062e:	2201      	movs	r2, #1
 8000630:	697b      	ldr	r3, [r7, #20]
 8000632:	fa02 f303 	lsl.w	r3, r2, r3
 8000636:	613b      	str	r3, [r7, #16]
		lastpos = (GPIO_ConfigStruct->pinNumber)& fakepos;
 8000638:	683b      	ldr	r3, [r7, #0]
 800063a:	681b      	ldr	r3, [r3, #0]
 800063c:	693a      	ldr	r2, [r7, #16]
 800063e:	4013      	ands	r3, r2
 8000640:	60fb      	str	r3, [r7, #12]
		uint32_t tempValue;

		if (fakepos == lastpos){
 8000642:	693a      	ldr	r2, [r7, #16]
 8000644:	68fb      	ldr	r3, [r7, #12]
 8000646:	429a      	cmp	r2, r3
 8000648:	f040 808e 	bne.w	8000768 <GPIO_Init+0x14a>

			/* Mode Config  */

			tempValue = GPIOx->MODER;
 800064c:	687b      	ldr	r3, [r7, #4]
 800064e:	681b      	ldr	r3, [r3, #0]
 8000650:	60bb      	str	r3, [r7, #8]

			tempValue &= ~(0x3U <<(pos*2));
 8000652:	697b      	ldr	r3, [r7, #20]
 8000654:	005b      	lsls	r3, r3, #1
 8000656:	2203      	movs	r2, #3
 8000658:	fa02 f303 	lsl.w	r3, r2, r3
 800065c:	43db      	mvns	r3, r3
 800065e:	68ba      	ldr	r2, [r7, #8]
 8000660:	4013      	ands	r3, r2
 8000662:	60bb      	str	r3, [r7, #8]
			tempValue |= (GPIO_ConfigStruct->Mode <<(pos*2));
 8000664:	683b      	ldr	r3, [r7, #0]
 8000666:	685a      	ldr	r2, [r3, #4]
 8000668:	697b      	ldr	r3, [r7, #20]
 800066a:	005b      	lsls	r3, r3, #1
 800066c:	fa02 f303 	lsl.w	r3, r2, r3
 8000670:	68ba      	ldr	r2, [r7, #8]
 8000672:	4313      	orrs	r3, r2
 8000674:	60bb      	str	r3, [r7, #8]

			GPIOx->MODER = tempValue;
 8000676:	687b      	ldr	r3, [r7, #4]
 8000678:	68ba      	ldr	r2, [r7, #8]
 800067a:	601a      	str	r2, [r3, #0]

				if(GPIO_ConfigStruct->Mode == GPIO_MODE_OUTPUT || GPIO_ConfigStruct->Mode == GPIO_MODE_AF){
 800067c:	683b      	ldr	r3, [r7, #0]
 800067e:	685b      	ldr	r3, [r3, #4]
 8000680:	2b01      	cmp	r3, #1
 8000682:	d003      	beq.n	800068c <GPIO_Init+0x6e>
 8000684:	683b      	ldr	r3, [r7, #0]
 8000686:	685b      	ldr	r3, [r3, #4]
 8000688:	2b02      	cmp	r3, #2
 800068a:	d12d      	bne.n	80006e8 <GPIO_Init+0xca>

				/* Output Type Config */
				tempValue = GPIOx->OTYPER;
 800068c:	687b      	ldr	r3, [r7, #4]
 800068e:	685b      	ldr	r3, [r3, #4]
 8000690:	60bb      	str	r3, [r7, #8]
				tempValue &= ~(0x1U <<pos);
 8000692:	2201      	movs	r2, #1
 8000694:	697b      	ldr	r3, [r7, #20]
 8000696:	fa02 f303 	lsl.w	r3, r2, r3
 800069a:	43db      	mvns	r3, r3
 800069c:	68ba      	ldr	r2, [r7, #8]
 800069e:	4013      	ands	r3, r2
 80006a0:	60bb      	str	r3, [r7, #8]
				tempValue |= (GPIO_ConfigStruct->Otype << pos);
 80006a2:	683b      	ldr	r3, [r7, #0]
 80006a4:	689a      	ldr	r2, [r3, #8]
 80006a6:	697b      	ldr	r3, [r7, #20]
 80006a8:	fa02 f303 	lsl.w	r3, r2, r3
 80006ac:	68ba      	ldr	r2, [r7, #8]
 80006ae:	4313      	orrs	r3, r2
 80006b0:	60bb      	str	r3, [r7, #8]
				GPIOx->OTYPER = tempValue;
 80006b2:	687b      	ldr	r3, [r7, #4]
 80006b4:	68ba      	ldr	r2, [r7, #8]
 80006b6:	605a      	str	r2, [r3, #4]

				/* Output Speed Config */
				tempValue = GPIOx->OSPEEDR;
 80006b8:	687b      	ldr	r3, [r7, #4]
 80006ba:	689b      	ldr	r3, [r3, #8]
 80006bc:	60bb      	str	r3, [r7, #8]
				tempValue &= ~(0x3U <<(pos*2));
 80006be:	697b      	ldr	r3, [r7, #20]
 80006c0:	005b      	lsls	r3, r3, #1
 80006c2:	2203      	movs	r2, #3
 80006c4:	fa02 f303 	lsl.w	r3, r2, r3
 80006c8:	43db      	mvns	r3, r3
 80006ca:	68ba      	ldr	r2, [r7, #8]
 80006cc:	4013      	ands	r3, r2
 80006ce:	60bb      	str	r3, [r7, #8]
				tempValue |= (GPIO_ConfigStruct->Speed << (pos*2));
 80006d0:	683b      	ldr	r3, [r7, #0]
 80006d2:	68da      	ldr	r2, [r3, #12]
 80006d4:	697b      	ldr	r3, [r7, #20]
 80006d6:	005b      	lsls	r3, r3, #1
 80006d8:	fa02 f303 	lsl.w	r3, r2, r3
 80006dc:	68ba      	ldr	r2, [r7, #8]
 80006de:	4313      	orrs	r3, r2
 80006e0:	60bb      	str	r3, [r7, #8]
				GPIOx->OSPEEDR = tempValue;
 80006e2:	687b      	ldr	r3, [r7, #4]
 80006e4:	68ba      	ldr	r2, [r7, #8]
 80006e6:	609a      	str	r2, [r3, #8]

				}

			/* Output Push-Pull Config */
			tempValue = GPIOx->PUPDR;
 80006e8:	687b      	ldr	r3, [r7, #4]
 80006ea:	68db      	ldr	r3, [r3, #12]
 80006ec:	60bb      	str	r3, [r7, #8]
			tempValue &= ~(0x3U << (pos*2));
 80006ee:	697b      	ldr	r3, [r7, #20]
 80006f0:	005b      	lsls	r3, r3, #1
 80006f2:	2203      	movs	r2, #3
 80006f4:	fa02 f303 	lsl.w	r3, r2, r3
 80006f8:	43db      	mvns	r3, r3
 80006fa:	68ba      	ldr	r2, [r7, #8]
 80006fc:	4013      	ands	r3, r2
 80006fe:	60bb      	str	r3, [r7, #8]
			tempValue |= (GPIO_ConfigStruct->PuPd << (pos*2));
 8000700:	683b      	ldr	r3, [r7, #0]
 8000702:	691a      	ldr	r2, [r3, #16]
 8000704:	697b      	ldr	r3, [r7, #20]
 8000706:	005b      	lsls	r3, r3, #1
 8000708:	fa02 f303 	lsl.w	r3, r2, r3
 800070c:	68ba      	ldr	r2, [r7, #8]
 800070e:	4313      	orrs	r3, r2
 8000710:	60bb      	str	r3, [r7, #8]
			GPIOx->PUPDR = tempValue;
 8000712:	687b      	ldr	r3, [r7, #4]
 8000714:	68ba      	ldr	r2, [r7, #8]
 8000716:	60da      	str	r2, [r3, #12]

					if(GPIO_ConfigStruct->Mode == GPIO_MODE_AF){
 8000718:	683b      	ldr	r3, [r7, #0]
 800071a:	685b      	ldr	r3, [r3, #4]
 800071c:	2b02      	cmp	r3, #2
 800071e:	d123      	bne.n	8000768 <GPIO_Init+0x14a>

					tempValue = GPIOx->AFR[pos >> 3U];
 8000720:	697b      	ldr	r3, [r7, #20]
 8000722:	08da      	lsrs	r2, r3, #3
 8000724:	687b      	ldr	r3, [r7, #4]
 8000726:	3208      	adds	r2, #8
 8000728:	f853 3022 	ldr.w	r3, [r3, r2, lsl #2]
 800072c:	60bb      	str	r3, [r7, #8]
					tempValue &= ~(0xFU << ((pos & 0x7U)*4));
 800072e:	697b      	ldr	r3, [r7, #20]
 8000730:	f003 0307 	and.w	r3, r3, #7
 8000734:	009b      	lsls	r3, r3, #2
 8000736:	220f      	movs	r2, #15
 8000738:	fa02 f303 	lsl.w	r3, r2, r3
 800073c:	43db      	mvns	r3, r3
 800073e:	68ba      	ldr	r2, [r7, #8]
 8000740:	4013      	ands	r3, r2
 8000742:	60bb      	str	r3, [r7, #8]
					tempValue |= (GPIO_ConfigStruct->AF <<((pos & 0x7U)*4));
 8000744:	683b      	ldr	r3, [r7, #0]
 8000746:	695a      	ldr	r2, [r3, #20]
 8000748:	697b      	ldr	r3, [r7, #20]
 800074a:	f003 0307 	and.w	r3, r3, #7
 800074e:	009b      	lsls	r3, r3, #2
 8000750:	fa02 f303 	lsl.w	r3, r2, r3
 8000754:	68ba      	ldr	r2, [r7, #8]
 8000756:	4313      	orrs	r3, r2
 8000758:	60bb      	str	r3, [r7, #8]
					GPIOx->AFR[pos >> 3U] = tempValue;
 800075a:	697b      	ldr	r3, [r7, #20]
 800075c:	08da      	lsrs	r2, r3, #3
 800075e:	687b      	ldr	r3, [r7, #4]
 8000760:	3208      	adds	r2, #8
 8000762:	68b9      	ldr	r1, [r7, #8]
 8000764:	f843 1022 	str.w	r1, [r3, r2, lsl #2]
	for(pos =0; pos< 16; pos++){
 8000768:	697b      	ldr	r3, [r7, #20]
 800076a:	3301      	adds	r3, #1
 800076c:	617b      	str	r3, [r7, #20]
 800076e:	697b      	ldr	r3, [r7, #20]
 8000770:	2b0f      	cmp	r3, #15
 8000772:	f67f af5c 	bls.w	800062e <GPIO_Init+0x10>

			}

	}

}
 8000776:	bf00      	nop
 8000778:	bf00      	nop
 800077a:	371c      	adds	r7, #28
 800077c:	46bd      	mov	sp, r7
 800077e:	bc80      	pop	{r7}
 8000780:	4770      	bx	lr

08000782 <SPI_Init>:
 *
 */

#include "SPI.h"

void SPI_Init(SPI_HandleTypeDef_t *SPI_Handle){
 8000782:	b480      	push	{r7}
 8000784:	b085      	sub	sp, #20
 8000786:	af00      	add	r7, sp, #0
 8000788:	6078      	str	r0, [r7, #4]

	/*	SPI control register 1 (SPI_CR1)	*/

	uint32_t tempValue = 0;
 800078a:	2300      	movs	r3, #0
 800078c:	60fb      	str	r3, [r7, #12]

	tempValue = SPI_Handle->Instance->CR1;
 800078e:	687b      	ldr	r3, [r7, #4]
 8000790:	681b      	ldr	r3, [r3, #0]
 8000792:	681b      	ldr	r3, [r3, #0]
 8000794:	60fb      	str	r3, [r7, #12]

	tempValue |= (SPI_Handle->Init.CPHA)|(SPI_Handle->Init.CPOL)|(SPI_Handle->Init.MSTR)|(SPI_Handle->Init.BR)|\
 8000796:	687b      	ldr	r3, [r7, #4]
 8000798:	685a      	ldr	r2, [r3, #4]
 800079a:	687b      	ldr	r3, [r7, #4]
 800079c:	689b      	ldr	r3, [r3, #8]
 800079e:	431a      	orrs	r2, r3
 80007a0:	687b      	ldr	r3, [r7, #4]
 80007a2:	68db      	ldr	r3, [r3, #12]
 80007a4:	431a      	orrs	r2, r3
 80007a6:	687b      	ldr	r3, [r7, #4]
 80007a8:	691b      	ldr	r3, [r3, #16]
 80007aa:	431a      	orrs	r2, r3
				 (SPI_Handle->Init.LSB_First)|(SPI_Handle->Init.SSM)|(SPI_Handle->Init.DFF)|\
 80007ac:	687b      	ldr	r3, [r7, #4]
 80007ae:	695b      	ldr	r3, [r3, #20]
	tempValue |= (SPI_Handle->Init.CPHA)|(SPI_Handle->Init.CPOL)|(SPI_Handle->Init.MSTR)|(SPI_Handle->Init.BR)|\
 80007b0:	431a      	orrs	r2, r3
				 (SPI_Handle->Init.LSB_First)|(SPI_Handle->Init.SSM)|(SPI_Handle->Init.DFF)|\
 80007b2:	687b      	ldr	r3, [r7, #4]
 80007b4:	699b      	ldr	r3, [r3, #24]
 80007b6:	431a      	orrs	r2, r3
 80007b8:	687b      	ldr	r3, [r7, #4]
 80007ba:	6a1b      	ldr	r3, [r3, #32]
 80007bc:	431a      	orrs	r2, r3
				 (SPI_Handle->Init.CRCNEXT)|(SPI_Handle->Init.CRCEN)|(SPI_Handle->Init.BUS_CONFIG);
 80007be:	687b      	ldr	r3, [r7, #4]
 80007c0:	6a5b      	ldr	r3, [r3, #36]	@ 0x24
				 (SPI_Handle->Init.LSB_First)|(SPI_Handle->Init.SSM)|(SPI_Handle->Init.DFF)|\
 80007c2:	431a      	orrs	r2, r3
				 (SPI_Handle->Init.CRCNEXT)|(SPI_Handle->Init.CRCEN)|(SPI_Handle->Init.BUS_CONFIG);
 80007c4:	687b      	ldr	r3, [r7, #4]
 80007c6:	6a9b      	ldr	r3, [r3, #40]	@ 0x28
 80007c8:	431a      	orrs	r2, r3
 80007ca:	687b      	ldr	r3, [r7, #4]
 80007cc:	69db      	ldr	r3, [r3, #28]
 80007ce:	4313      	orrs	r3, r2
	tempValue |= (SPI_Handle->Init.CPHA)|(SPI_Handle->Init.CPOL)|(SPI_Handle->Init.MSTR)|(SPI_Handle->Init.BR)|\
 80007d0:	68fa      	ldr	r2, [r7, #12]
 80007d2:	4313      	orrs	r3, r2
 80007d4:	60fb      	str	r3, [r7, #12]

	SPI_Handle->Instance->CR1 = tempValue;
 80007d6:	687b      	ldr	r3, [r7, #4]
 80007d8:	681b      	ldr	r3, [r3, #0]
 80007da:	68fa      	ldr	r2, [r7, #12]
 80007dc:	601a      	str	r2, [r3, #0]
}
 80007de:	bf00      	nop
 80007e0:	3714      	adds	r7, #20
 80007e2:	46bd      	mov	sp, r7
 80007e4:	bc80      	pop	{r7}
 80007e6:	4770      	bx	lr

080007e8 <SPI_Perip_Cmd>:
 * @retval Void
 *
 */


void SPI_Perip_Cmd (SPI_HandleTypeDef_t *SPI_Handle, Functional_State_t stateOfSPI){
 80007e8:	b480      	push	{r7}
 80007ea:	b083      	sub	sp, #12
 80007ec:	af00      	add	r7, sp, #0
 80007ee:	6078      	str	r0, [r7, #4]
 80007f0:	460b      	mov	r3, r1
 80007f2:	70fb      	strb	r3, [r7, #3]

	if (stateOfSPI == ENABLE){
 80007f4:	78fb      	ldrb	r3, [r7, #3]
 80007f6:	2b01      	cmp	r3, #1
 80007f8:	d108      	bne.n	800080c <SPI_Perip_Cmd+0x24>

		SPI_Handle->Instance->CR1 |= (0x1 << SPI_CR1_SPE);
 80007fa:	687b      	ldr	r3, [r7, #4]
 80007fc:	681b      	ldr	r3, [r3, #0]
 80007fe:	681a      	ldr	r2, [r3, #0]
 8000800:	687b      	ldr	r3, [r7, #4]
 8000802:	681b      	ldr	r3, [r3, #0]
 8000804:	f042 0240 	orr.w	r2, r2, #64	@ 0x40
 8000808:	601a      	str	r2, [r3, #0]

		SPI_Handle->Instance->CR1 &= ~(0x1 << SPI_CR1_SPE);

	}

}
 800080a:	e007      	b.n	800081c <SPI_Perip_Cmd+0x34>
		SPI_Handle->Instance->CR1 &= ~(0x1 << SPI_CR1_SPE);
 800080c:	687b      	ldr	r3, [r7, #4]
 800080e:	681b      	ldr	r3, [r3, #0]
 8000810:	681a      	ldr	r2, [r3, #0]
 8000812:	687b      	ldr	r3, [r7, #4]
 8000814:	681b      	ldr	r3, [r3, #0]
 8000816:	f022 0240 	bic.w	r2, r2, #64	@ 0x40
 800081a:	601a      	str	r2, [r3, #0]
}
 800081c:	bf00      	nop
 800081e:	370c      	adds	r7, #12
 8000820:	46bd      	mov	sp, r7
 8000822:	bc80      	pop	{r7}
 8000824:	4770      	bx	lr

08000826 <SPI_TransmitData>:
 * @retval Void
 *
 */


void SPI_TransmitData(SPI_HandleTypeDef_t *SPI_Handle,uint8_t *pData, uint16_t sizeOfData ){
 8000826:	b580      	push	{r7, lr}
 8000828:	b084      	sub	sp, #16
 800082a:	af00      	add	r7, sp, #0
 800082c:	60f8      	str	r0, [r7, #12]
 800082e:	60b9      	str	r1, [r7, #8]
 8000830:	4613      	mov	r3, r2
 8000832:	80fb      	strh	r3, [r7, #6]

	if(SPI_Handle->Init.DFF == SPI_DFF_16BITS){
 8000834:	68fb      	ldr	r3, [r7, #12]
 8000836:	6a1b      	ldr	r3, [r3, #32]
 8000838:	f5b3 6f00 	cmp.w	r3, #2048	@ 0x800
 800083c:	d128      	bne.n	8000890 <SPI_TransmitData+0x6a>

		while(sizeOfData >0){
 800083e:	e011      	b.n	8000864 <SPI_TransmitData+0x3e>

			if(SPI_GetFlagStatus(SPI_Handle,SPI_TxE_FLAG )){
 8000840:	2102      	movs	r1, #2
 8000842:	68f8      	ldr	r0, [r7, #12]
 8000844:	f000 f834 	bl	80008b0 <SPI_GetFlagStatus>
 8000848:	4603      	mov	r3, r0
 800084a:	2b00      	cmp	r3, #0
 800084c:	d00a      	beq.n	8000864 <SPI_TransmitData+0x3e>

				SPI_Handle->Instance->DR = *((uint16_t*)pData);
 800084e:	68bb      	ldr	r3, [r7, #8]
 8000850:	881a      	ldrh	r2, [r3, #0]
 8000852:	68fb      	ldr	r3, [r7, #12]
 8000854:	681b      	ldr	r3, [r3, #0]
 8000856:	60da      	str	r2, [r3, #12]
				pData += sizeof(uint16_t);
 8000858:	68bb      	ldr	r3, [r7, #8]
 800085a:	3302      	adds	r3, #2
 800085c:	60bb      	str	r3, [r7, #8]
				sizeOfData -= 2;
 800085e:	88fb      	ldrh	r3, [r7, #6]
 8000860:	3b02      	subs	r3, #2
 8000862:	80fb      	strh	r3, [r7, #6]
		while(sizeOfData >0){
 8000864:	88fb      	ldrh	r3, [r7, #6]
 8000866:	2b00      	cmp	r3, #0
 8000868:	d1ea      	bne.n	8000840 <SPI_TransmitData+0x1a>
 800086a:	e014      	b.n	8000896 <SPI_TransmitData+0x70>
	}
	else{

		while(sizeOfData >0){

			if((SPI_Handle->Instance->SR >> 1U) & 0x1U){
 800086c:	68fb      	ldr	r3, [r7, #12]
 800086e:	681b      	ldr	r3, [r3, #0]
 8000870:	689b      	ldr	r3, [r3, #8]
 8000872:	f003 0302 	and.w	r3, r3, #2
 8000876:	2b00      	cmp	r3, #0
 8000878:	d00a      	beq.n	8000890 <SPI_TransmitData+0x6a>

				SPI_Handle->Instance->DR = *pData;
 800087a:	68bb      	ldr	r3, [r7, #8]
 800087c:	781a      	ldrb	r2, [r3, #0]
 800087e:	68fb      	ldr	r3, [r7, #12]
 8000880:	681b      	ldr	r3, [r3, #0]
 8000882:	60da      	str	r2, [r3, #12]
				pData +=sizeof(uint8_t);
 8000884:	68bb      	ldr	r3, [r7, #8]
 8000886:	3301      	adds	r3, #1
 8000888:	60bb      	str	r3, [r7, #8]
				sizeOfData--;
 800088a:	88fb      	ldrh	r3, [r7, #6]
 800088c:	3b01      	subs	r3, #1
 800088e:	80fb      	strh	r3, [r7, #6]
		while(sizeOfData >0){
 8000890:	88fb      	ldrh	r3, [r7, #6]
 8000892:	2b00      	cmp	r3, #0
 8000894:	d1ea      	bne.n	800086c <SPI_TransmitData+0x46>

		 }

	}

	while(SPI_GetFlagStatus(SPI_Handle,SPI_TxE_FLAG )); // Wait for Busy Flag
 8000896:	bf00      	nop
 8000898:	2102      	movs	r1, #2
 800089a:	68f8      	ldr	r0, [r7, #12]
 800089c:	f000 f808 	bl	80008b0 <SPI_GetFlagStatus>
 80008a0:	4603      	mov	r3, r0
 80008a2:	2b00      	cmp	r3, #0
 80008a4:	d1f8      	bne.n	8000898 <SPI_TransmitData+0x72>

}
 80008a6:	bf00      	nop
 80008a8:	bf00      	nop
 80008aa:	3710      	adds	r7, #16
 80008ac:	46bd      	mov	sp, r7
 80008ae:	bd80      	pop	{r7, pc}

080008b0 <SPI_GetFlagStatus>:
 * @retval SPI_FlagStatus_t
 *
 */


SPI_FlagStatus_t SPI_GetFlagStatus(SPI_HandleTypeDef_t *SPI_Handle,uint16_t SPI_Flag){
 80008b0:	b480      	push	{r7}
 80008b2:	b083      	sub	sp, #12
 80008b4:	af00      	add	r7, sp, #0
 80008b6:	6078      	str	r0, [r7, #4]
 80008b8:	460b      	mov	r3, r1
 80008ba:	807b      	strh	r3, [r7, #2]

	return(SPI_Handle->Instance->SR & SPI_Flag) ? SPI_FLAG_SET : SPI_FLAG_RESET ;
 80008bc:	687b      	ldr	r3, [r7, #4]
 80008be:	681b      	ldr	r3, [r3, #0]
 80008c0:	689a      	ldr	r2, [r3, #8]
 80008c2:	887b      	ldrh	r3, [r7, #2]
 80008c4:	4013      	ands	r3, r2
 80008c6:	2b00      	cmp	r3, #0
 80008c8:	bf14      	ite	ne
 80008ca:	2301      	movne	r3, #1
 80008cc:	2300      	moveq	r3, #0
 80008ce:	b2db      	uxtb	r3, r3

}
 80008d0:	4618      	mov	r0, r3
 80008d2:	370c      	adds	r7, #12
 80008d4:	46bd      	mov	sp, r7
 80008d6:	bc80      	pop	{r7}
 80008d8:	4770      	bx	lr

080008da <memset>:
 80008da:	4402      	add	r2, r0
 80008dc:	4603      	mov	r3, r0
 80008de:	4293      	cmp	r3, r2
 80008e0:	d100      	bne.n	80008e4 <memset+0xa>
 80008e2:	4770      	bx	lr
 80008e4:	f803 1b01 	strb.w	r1, [r3], #1
 80008e8:	e7f9      	b.n	80008de <memset+0x4>
	...

080008ec <__libc_init_array>:
 80008ec:	b570      	push	{r4, r5, r6, lr}
 80008ee:	4d0d      	ldr	r5, [pc, #52]	@ (8000924 <__libc_init_array+0x38>)
 80008f0:	4c0d      	ldr	r4, [pc, #52]	@ (8000928 <__libc_init_array+0x3c>)
 80008f2:	1b64      	subs	r4, r4, r5
 80008f4:	10a4      	asrs	r4, r4, #2
 80008f6:	2600      	movs	r6, #0
 80008f8:	42a6      	cmp	r6, r4
 80008fa:	d109      	bne.n	8000910 <__libc_init_array+0x24>
 80008fc:	4d0b      	ldr	r5, [pc, #44]	@ (800092c <__libc_init_array+0x40>)
 80008fe:	4c0c      	ldr	r4, [pc, #48]	@ (8000930 <__libc_init_array+0x44>)
 8000900:	f000 f818 	bl	8000934 <_init>
 8000904:	1b64      	subs	r4, r4, r5
 8000906:	10a4      	asrs	r4, r4, #2
 8000908:	2600      	movs	r6, #0
 800090a:	42a6      	cmp	r6, r4
 800090c:	d105      	bne.n	800091a <__libc_init_array+0x2e>
 800090e:	bd70      	pop	{r4, r5, r6, pc}
 8000910:	f855 3b04 	ldr.w	r3, [r5], #4
 8000914:	4798      	blx	r3
 8000916:	3601      	adds	r6, #1
 8000918:	e7ee      	b.n	80008f8 <__libc_init_array+0xc>
 800091a:	f855 3b04 	ldr.w	r3, [r5], #4
 800091e:	4798      	blx	r3
 8000920:	3601      	adds	r6, #1
 8000922:	e7f2      	b.n	800090a <__libc_init_array+0x1e>
 8000924:	08000954 	.word	0x08000954
 8000928:	08000954 	.word	0x08000954
 800092c:	08000954 	.word	0x08000954
 8000930:	08000958 	.word	0x08000958

08000934 <_init>:
 8000934:	b5f8      	push	{r3, r4, r5, r6, r7, lr}
 8000936:	bf00      	nop
 8000938:	bcf8      	pop	{r3, r4, r5, r6, r7}
 800093a:	bc08      	pop	{r3}
 800093c:	469e      	mov	lr, r3
 800093e:	4770      	bx	lr

08000940 <_fini>:
 8000940:	b5f8      	push	{r3, r4, r5, r6, r7, lr}
 8000942:	bf00      	nop
 8000944:	bcf8      	pop	{r3, r4, r5, r6, r7}
 8000946:	bc08      	pop	{r3}
 8000948:	469e      	mov	lr, r3
 800094a:	4770      	bx	lr
